; Function Attrs: nounwind uwtable
define noundef range(i32 -43, 1) i32 @prte_util_get_ordered_dash_host_list(ptr noundef %0, ptr noundef %1) local_unnamed_addr #0 {
  %3 = alloca ptr, align 8
  call void @llvm.lifetime.start.p0(i64 8, ptr nonnull %3) #15
  store ptr null, ptr %3, align 8, !tbaa !34
  %4 = call fastcc i32 @parse_dash_host(ptr noundef %3, ptr noundef %1)
  switch i32 %4, label %5 [
    i32 -43, label %7
    i32 0, label %7
  ]

5:                                                ; preds = %2
  %6 = call ptr @prte_strerror(i32 noundef %4) #15
  call void (i32, ptr, ...) @pmix_output(i32 noundef 0, ptr noundef nonnull @.str.12, ptr noundef %6, ptr noundef nonnull @.str.13, i32 noundef 749) #15
  br label %7

7:                                                ; preds = %2, %2, %5
  %8 = load ptr, ptr %3, align 8, !tbaa !34
  %9 = load ptr, ptr %8, align 8, !tbaa !3
  %.not11 = icmp eq ptr %9, null
  br i1 %.not11, label %._crit_edge, label %.lr.ph

.lr.ph:                                           ; preds = %7
  %10 = getelementptr inbounds nuw i8, ptr %0, i64 120
  %11 = getelementptr inbounds nuw i8, ptr %0, i64 248
  %12 = getelementptr inbounds nuw i8, ptr %0, i64 264
  br label %13

13:                                               ; preds = %.lr.ph, %pmix_obj_new_tma.exit
  %indvars.iv = phi i64 [ 0, %.lr.ph ], [ %indvars.iv.next, %pmix_obj_new_tma.exit ]
  %14 = load i64, ptr getelementptr inbounds nuw (i8, ptr @prte_node_t_class, i64 56), align 8, !tbaa !65
  %15 = call noalias noundef ptr @malloc(i64 noundef %14) #17
  %16 = load i32, ptr @pmix_class_init_epoch, align 4, !tbaa !40
  %17 = load i32, ptr getelementptr inbounds nuw (i8, ptr @prte_node_t_class, i64 32), align 8, !tbaa !41
  %.not.i = icmp eq i32 %16, %17
  br i1 %.not.i, label %19, label %18

18:                                               ; preds = %13
  call void @pmix_class_initialize(ptr noundef nonnull @prte_node_t_class) #15
  br label %19

19:                                               ; preds = %18, %13
  %.not22.i = icmp eq ptr %15, null
  br i1 %.not22.i, label %pmix_obj_new_tma.exit, label %20

20:                                               ; preds = %19
  %21 = call i32 @pthread_mutex_init(ptr noundef nonnull %15, ptr noundef null) #15
  %22 = getelementptr inbounds nuw i8, ptr %15, i64 40
  store ptr @prte_node_t_class, ptr %22, align 8, !tbaa !43
  %23 = getelementptr inbounds nuw i8, ptr %15, i64 48
  store i32 1, ptr %23, align 8, !tbaa !44
  %24 = getelementptr inbounds nuw i8, ptr %15, i64 56
  %25 = getelementptr inbounds nuw i8, ptr %15, i64 96
  call void @llvm.memset.p0.i64(ptr noundef nonnull align 8 dereferenceable(32) %24, i8 0, i64 32, i1 false)
  call void @llvm.memset.p0.i64(ptr noundef nonnull align 8 dereferenceable(24) %25, i8 0, i64 24, i1 false)
  %26 = load ptr, ptr getelementptr inbounds nuw (i8, ptr @prte_node_t_class, i64 40), align 8, !tbaa !45
  %27 = load ptr, ptr %26, align 8, !tbaa !46
  %.not6.i.i = icmp eq ptr %27, null
  br i1 %.not6.i.i, label %pmix_obj_new_tma.exit, label %.lr.ph.i.i

.lr.ph.i.i:                                       ; preds = %20, %.lr.ph.i.i
  %28 = phi ptr [ %30, %.lr.ph.i.i ], [ %27, %20 ]
  %.07.i.i = phi ptr [ %29, %.lr.ph.i.i ], [ %26, %20 ]
  call void %28(ptr noundef nonnull %15) #15
  %29 = getelementptr inbounds nuw i8, ptr %.07.i.i, i64 8
  %30 = load ptr, ptr %29, align 8, !tbaa !46
  %.not.i.i = icmp eq ptr %30, null
  br i1 %.not.i.i, label %pmix_obj_new_tma.exit, label %.lr.ph.i.i, !llvm.loop !47

pmix_obj_new_tma.exit:                            ; preds = %.lr.ph.i.i, %19, %20
  %31 = load ptr, ptr %3, align 8, !tbaa !34
  %32 = getelementptr inbounds nuw ptr, ptr %31, i64 %indvars.iv
  %33 = load ptr, ptr %32, align 8, !tbaa !3
  %34 = call noalias ptr @strdup(ptr noundef %33) #15
  %35 = getelementptr inbounds nuw i8, ptr %15, i64 152
  store ptr %34, ptr %35, align 8, !tbaa !27
  %36 = load ptr, ptr %11, align 8, !tbaa !68
  %37 = getelementptr inbounds nuw i8, ptr %15, i64 128
  store ptr %36, ptr %37, align 8, !tbaa !68
  %38 = getelementptr inbounds nuw i8, ptr %36, i64 120
  store volatile ptr %15, ptr %38, align 8, !tbaa !69
  %39 = getelementptr inbounds nuw i8, ptr %15, i64 120
  store ptr %10, ptr %39, align 8, !tbaa !69
  store ptr %15, ptr %11, align 8, !tbaa !68
  %40 = load volatile i64, ptr %12, align 8, !tbaa !48
  %41 = add i64 %40, 1
  store volatile i64 %41, ptr %12, align 8, !tbaa !48
  %indvars.iv.next = add nuw nsw i64 %indvars.iv, 1
  %42 = getelementptr inbounds nuw ptr, ptr %31, i64 %indvars.iv.next
  %43 = load ptr, ptr %42, align 8, !tbaa !3
  %.not = icmp eq ptr %43, null
  br i1 %.not, label %._crit_edge, label %13, !llvm.loop !93

._crit_edge:                                      ; preds = %pmix_obj_new_tma.exit, %7
  %.lcssa = phi ptr [ %8, %7 ], [ %31, %pmix_obj_new_tma.exit ]
  call void @PMIx_Argv_free(ptr noundef nonnull %.lcssa) #15
  call void @llvm.lifetime.end.p0(i64 8, ptr nonnull %3) #15
  ret i32 %4
}